; Function Attrs: mustprogress uwtable
define hidden noundef zeroext i1 @_ZN4cvc58internal4expr12getVariablesENS0_12NodeTemplateILb0EEERSt13unordered_setINS2_ILb1EEESt4hashIS5_ESt8equal_toIS5_ESaIS5_EE(ptr noundef readonly captures(none) %0, ptr noundef nonnull align 8 dereferenceable(56) %1) local_unnamed_addr #3 personality ptr @__gxx_personality_v0 {
  %3 = alloca %"class.std::unordered_set", align 8
  %4 = alloca %"class.cvc5::internal::NodeTemplate", align 8
  call void @llvm.lifetime.start.p0(i64 56, ptr nonnull %3) #21
  %5 = getelementptr inbounds nuw i8, ptr %3, i64 48
  store ptr %5, ptr %3, align 8, !tbaa !9
  %6 = getelementptr inbounds nuw i8, ptr %3, i64 8
  store i64 1, ptr %6, align 8, !tbaa !17
  %7 = getelementptr inbounds nuw i8, ptr %3, i64 16
  %8 = getelementptr inbounds nuw i8, ptr %3, i64 32
  call void @llvm.memset.p0.i64(ptr noundef nonnull align 8 dereferenceable(16) %7, i8 0, i64 16, i1 false)
  store float 1.000000e+00, ptr %8, align 8, !tbaa !18
  %9 = getelementptr inbounds nuw i8, ptr %3, i64 40
  call void @llvm.memset.p0.i64(ptr noundef nonnull align 8 dereferenceable(16) %9, i8 0, i64 16, i1 false)
  %10 = load ptr, ptr %0, align 8, !tbaa !3
  store ptr %10, ptr %4, align 8, !tbaa !3
  %11 = invoke noundef zeroext i1 @_ZN4cvc58internal4expr12getVariablesENS0_12NodeTemplateILb0EEERSt13unordered_setINS2_ILb1EEESt4hashIS5_ESt8equal_toIS5_ESaIS5_EERS4_IS3_S6_IS3_ES8_IS3_ESaIS3_EE(ptr noundef nonnull %4, ptr noundef nonnull align 8 dereferenceable(56) %1, ptr noundef nonnull align 8 dereferenceable(56) %3)
          to label %12 unwind label %23

12:                                               ; preds = %2
  %13 = load ptr, ptr %7, align 8, !tbaa !46
  %.not5.i.i.i.i = icmp eq ptr %13, null
  br i1 %.not5.i.i.i.i, label %_ZNSt10_HashtableIN4cvc58internal12NodeTemplateILb0EEES3_SaIS3_ENSt8__detail9_IdentityESt8equal_toIS3_ESt4hashIS3_ENS5_18_Mod_range_hashingENS5_20_Default_ranged_hashENS5_20_Prime_rehash_policyENS5_17_Hashtable_traitsILb1ELb1ELb1EEEE5clearEv.exit.i.i, label %.lr.ph.i.i.i.i

.lr.ph.i.i.i.i:                                   ; preds = %12, %.lr.ph.i.i.i.i
  %.06.i.i.i.i = phi ptr [ %14, %.lr.ph.i.i.i.i ], [ %13, %12 ]
  %14 = load ptr, ptr %.06.i.i.i.i, align 8, !tbaa !34
  call void @_ZdlPvm(ptr noundef nonnull %.06.i.i.i.i, i64 noundef 24) #24
  %.not.i.i.i.i = icmp eq ptr %14, null
  br i1 %.not.i.i.i.i, label %_ZNSt10_HashtableIN4cvc58internal12NodeTemplateILb0EEES3_SaIS3_ENSt8__detail9_IdentityESt8equal_toIS3_ESt4hashIS3_ENS5_18_Mod_range_hashingENS5_20_Default_ranged_hashENS5_20_Prime_rehash_policyENS5_17_Hashtable_traitsILb1ELb1ELb1EEEE5clearEv.exit.i.i, label %.lr.ph.i.i.i.i, !llvm.loop !47

_ZNSt10_HashtableIN4cvc58internal12NodeTemplateILb0EEES3_SaIS3_ENSt8__detail9_IdentityESt8equal_toIS3_ESt4hashIS3_ENS5_18_Mod_range_hashingENS5_20_Default_ranged_hashENS5_20_Prime_rehash_policyENS5_17_Hashtable_traitsILb1ELb1ELb1EEEE5clearEv.exit.i.i: ; preds = %.lr.ph.i.i.i.i, %12
  %15 = load ptr, ptr %3, align 8, !tbaa !9
  %16 = load i64, ptr %6, align 8, !tbaa !17
  %17 = shl i64 %16, 3
  call void @llvm.memset.p0.i64(ptr align 8 %15, i8 0, i64 %17, i1 false)
  call void @llvm.memset.p0.i64(ptr noundef nonnull align 8 dereferenceable(16) %7, i8 0, i64 16, i1 false)
  %18 = load ptr, ptr %3, align 8, !tbaa !9
  %19 = icmp eq ptr %18, %5
  br i1 %19, label %_ZNSt13unordered_setIN4cvc58internal12NodeTemplateILb0EEESt4hashIS3_ESt8equal_toIS3_ESaIS3_EED2Ev.exit, label %20

20:                                               ; preds = %_ZNSt10_HashtableIN4cvc58internal12NodeTemplateILb0EEES3_SaIS3_ENSt8__detail9_IdentityESt8equal_toIS3_ESt4hashIS3_ENS5_18_Mod_range_hashingENS5_20_Default_ranged_hashENS5_20_Prime_rehash_policyENS5_17_Hashtable_traitsILb1ELb1ELb1EEEE5clearEv.exit.i.i
  %21 = load i64, ptr %6, align 8, !tbaa !17
  %22 = shl i64 %21, 3
  call void @_ZdlPvm(ptr noundef %18, i64 noundef %22) #24
  br label %_ZNSt13unordered_setIN4cvc58internal12NodeTemplateILb0EEESt4hashIS3_ESt8equal_toIS3_ESaIS3_EED2Ev.exit

_ZNSt13unordered_setIN4cvc58internal12NodeTemplateILb0EEESt4hashIS3_ESt8equal_toIS3_ESaIS3_EED2Ev.exit: ; preds = %_ZNSt10_HashtableIN4cvc58internal12NodeTemplateILb0EEES3_SaIS3_ENSt8__detail9_IdentityESt8equal_toIS3_ESt4hashIS3_ENS5_18_Mod_range_hashingENS5_20_Default_ranged_hashENS5_20_Prime_rehash_policyENS5_17_Hashtable_traitsILb1ELb1ELb1EEEE5clearEv.exit.i.i, %20
  call void @llvm.lifetime.end.p0(i64 56, ptr nonnull %3) #21
  ret i1 %11

23:                                               ; preds = %2
  %24 = landingpad { ptr, i32 }
          cleanup
  call void @_ZNSt13unordered_setIN4cvc58internal12NodeTemplateILb0EEESt4hashIS3_ESt8equal_toIS3_ESaIS3_EED2Ev(ptr noundef nonnull align 8 dereferenceable(56) %3) #21
  call void @llvm.lifetime.end.p0(i64 56, ptr nonnull %3) #21
  resume { ptr, i32 } %24
}